target datalayout = "e-m:e-p270:32:32-p271:32:32-p272:64:64-i64:64-i128:128-f80:128-n8:16:32:64-S128"
target triple = "x86_64-pc-linux-gnu"

; Function Attrs: nounwind uwtable
define ptr @Abc_NtkBalanceExor(ptr noundef %0, i32 noundef %1, i32 noundef %2) #0 {
  %4 = alloca ptr, align 8
  %5 = alloca ptr, align 8
  %6 = alloca i32, align 4
  %7 = alloca i32, align 4
  %8 = alloca ptr, align 8
  %9 = alloca ptr, align 8
  %10 = alloca ptr, align 8
  store ptr %0, ptr %5, align 8
  store i32 %1, ptr %6, align 4
  store i32 %2, ptr %7, align 4
  %11 = load ptr, ptr %5, align 8
  %12 = call ptr @Abc_NtkToDar(ptr noundef %11, i32 noundef 1, i32 noundef 0)
  store ptr %12, ptr %9, align 8
  %13 = load ptr, ptr %9, align 8
  %14 = icmp eq ptr %13, null
  br i1 %14, label %15, label %16

15:                                               ; preds = %3
  store ptr null, ptr %4, align 8
  br label %31

16:                                               ; preds = %3
  %17 = load i32, ptr %7, align 4
  %18 = icmp ne i32 %17, 0
  br i1 %18, label %19, label %21

19:                                               ; preds = %16
  %20 = load ptr, ptr %9, align 8
  call void @Dar_BalancePrintStats(ptr noundef %20)
  br label %21

21:                                               ; preds = %19, %16
  %22 = load ptr, ptr %9, align 8
  %23 = load i32, ptr %6, align 4
  %24 = call ptr @Dar_ManBalance(ptr noundef %22, i32 noundef %23)
  store ptr %24, ptr %10, align 8
  %25 = load ptr, ptr %5, align 8
  %26 = load ptr, ptr %10, align 8
  %27 = call ptr @Abc_NtkFromDar(ptr noundef %25, ptr noundef %26)
  store ptr %27, ptr %8, align 8
  %28 = load ptr, ptr %10, align 8
  call void @Aig_ManStop(ptr noundef %28)
  %29 = load ptr, ptr %9, align 8
  call void @Aig_ManStop(ptr noundef %29)
  %30 = load ptr, ptr %8, align 8
  store ptr %30, ptr %4, align 8
  br label %31

31:                                               ; preds = %21, %15
  %32 = load ptr, ptr %4, align 8
  ret ptr %32
}