; Function Attrs: nounwind uwtable
define noundef ptr @Abc_NtkBalanceExor(ptr noundef %0, i32 noundef %1, i32 noundef %2) local_unnamed_addr #1 {
  %4 = tail call ptr @Abc_NtkToDar(ptr noundef %0, i32 noundef 1, i32 noundef 0)
  %5 = icmp eq ptr %4, null
  br i1 %5, label %11, label %6

6:                                                ; preds = %3
  %.not = icmp eq i32 %2, 0
  br i1 %.not, label %8, label %7

7:                                                ; preds = %6
  tail call void @Dar_BalancePrintStats(ptr noundef nonnull %4) #19
  br label %8

8:                                                ; preds = %7, %6
  %9 = tail call ptr @Dar_ManBalance(ptr noundef nonnull %4, i32 noundef %1) #19
  %10 = tail call ptr @Abc_NtkFromDar(ptr noundef %0, ptr noundef %9)
  tail call void @Aig_ManStop(ptr noundef %9) #19
  tail call void @Aig_ManStop(ptr noundef nonnull %4) #19
  br label %11

11:                                               ; preds = %3, %8
  %.0 = phi ptr [ %10, %8 ], [ null, %3 ]
  ret ptr %.0
}